target datalayout = "e-m:e-p270:32:32-p271:32:32-p272:64:64-i64:64-i128:128-f80:128-n8:16:32:64-S128"
target triple = "x86_64-pc-linux-gnu"

%struct.rb_data_type_struct = type { ptr, %struct.anon, ptr, ptr, i64 }
%struct.anon = type { ptr, ptr, ptr, ptr, [1 x ptr] }

@ossl_evp_pkey_type = constant %struct.rb_data_type_struct { ptr @.str, %struct.anon { ptr null, ptr @ossl_evp_pkey_free, ptr null, ptr null, [1 x ptr] zeroinitializer }, ptr null, ptr null, i64 33 }, align 8
@ePKeyError = global i64 0, align 8
@rb_eRuntimeError = external global i64, align 8
@.str.4 = private unnamed_addr constant [25 x i8] c"PKEY wasn't initialized!\00", align 1
@rb_eTypeError = external global i64, align 8
@.str.63 = private unnamed_addr constant [34 x i8] c"cannot match different PKey types\00", align 1
@.str.64 = private unnamed_addr constant [12 x i8] c"EVP_PKEY_eq\00", align 1

; Function Attrs: nounwind sspstrong uwtable
define internal i64 @ossl_pkey_compare(i64 noundef %0, i64 noundef %1) #0 {
  %3 = alloca i64, align 8
  %4 = alloca i64, align 8
  %5 = alloca i64, align 8
  %6 = alloca i32, align 4
  %7 = alloca ptr, align 8
  %8 = alloca ptr, align 8
  %9 = alloca i32, align 4
  store i64 %0, ptr %4, align 8, !tbaa !12
  store i64 %1, ptr %5, align 8, !tbaa !12
  call void @llvm.lifetime.start.p0(i64 4, ptr %6) #19
  call void @llvm.lifetime.start.p0(i64 8, ptr %7) #19
  call void @llvm.lifetime.start.p0(i64 8, ptr %8) #19
  br label %10

10:                                               ; preds = %2
  %11 = load i64, ptr %4, align 8, !tbaa !12
  %12 = call ptr @rb_check_typeddata(i64 noundef %11, ptr noundef @ossl_evp_pkey_type)
  store ptr %12, ptr %7, align 8, !tbaa !10
  %13 = load ptr, ptr %7, align 8, !tbaa !10
  %14 = icmp ne ptr %13, null
  br i1 %14, label %17, label %15

15:                                               ; preds = %10
  %16 = load i64, ptr @rb_eRuntimeError, align 8, !tbaa !12
  call void (i64, ptr, ...) @rb_raise(i64 noundef %16, ptr noundef @.str.4) #20
  unreachable

17:                                               ; preds = %10
  br label %18

18:                                               ; preds = %17
  br label %19

19:                                               ; preds = %18
  br label %20

20:                                               ; preds = %19
  %21 = load i64, ptr %5, align 8, !tbaa !12
  %22 = call ptr @rb_check_typeddata(i64 noundef %21, ptr noundef @ossl_evp_pkey_type)
  store ptr %22, ptr %8, align 8, !tbaa !10
  %23 = load ptr, ptr %8, align 8, !tbaa !10
  %24 = icmp ne ptr %23, null
  br i1 %24, label %27, label %25

25:                                               ; preds = %20
  %26 = load i64, ptr @rb_eRuntimeError, align 8, !tbaa !12
  call void (i64, ptr, ...) @rb_raise(i64 noundef %26, ptr noundef @.str.4) #20
  unreachable

27:                                               ; preds = %20
  br label %28

28:                                               ; preds = %27
  br label %29

29:                                               ; preds = %28
  %30 = load ptr, ptr %7, align 8, !tbaa !10
  %31 = call i32 @EVP_PKEY_get_id(ptr noundef %30)
  %32 = load ptr, ptr %8, align 8, !tbaa !10
  %33 = call i32 @EVP_PKEY_get_id(ptr noundef %32)
  %34 = icmp ne i32 %31, %33
  br i1 %34, label %35, label %37

35:                                               ; preds = %29
  %36 = load i64, ptr @rb_eTypeError, align 8, !tbaa !12
  call void (i64, ptr, ...) @ossl_raise(i64 noundef %36, ptr noundef @.str.63) #20
  unreachable

37:                                               ; preds = %29
  %38 = load ptr, ptr %7, align 8, !tbaa !10
  %39 = load ptr, ptr %8, align 8, !tbaa !10
  %40 = call i32 @EVP_PKEY_eq(ptr noundef %38, ptr noundef %39)
  store i32 %40, ptr %6, align 4, !tbaa !14
  %41 = load i32, ptr %6, align 4, !tbaa !14
  %42 = icmp eq i32 %41, 0
  br i1 %42, label %43, label %44

43:                                               ; preds = %37
  store i64 0, ptr %3, align 8
  store i32 1, ptr %9, align 4
  br label %50

44:                                               ; preds = %37
  %45 = load i32, ptr %6, align 4, !tbaa !14
  %46 = icmp eq i32 %45, 1
  br i1 %46, label %47, label %48

47:                                               ; preds = %44
  store i64 20, ptr %3, align 8
  store i32 1, ptr %9, align 4
  br label %50

48:                                               ; preds = %44
  %49 = load i64, ptr @ePKeyError, align 8, !tbaa !12
  call void (i64, ptr, ...) @ossl_raise(i64 noundef %49, ptr noundef @.str.64) #20
  unreachable

50:                                               ; preds = %47, %43
  call void @llvm.lifetime.end.p0(i64 8, ptr %8) #19
  call void @llvm.lifetime.end.p0(i64 8, ptr %7) #19
  call void @llvm.lifetime.end.p0(i64 4, ptr %6) #19
  %51 = load i64, ptr %3, align 8
  ret i64 %51
}