; Function Attrs: nounwind sspstrong uwtable
define internal range(i64 0, 21) i64 @ossl_pkey_compare(i64 noundef %0, i64 noundef %1) #0 {
  %3 = tail call ptr @rb_check_typeddata(i64 noundef %0, ptr noundef nonnull @ossl_evp_pkey_type) #8
  %.not = icmp eq ptr %3, null
  br i1 %.not, label %4, label %6

4:                                                ; preds = %2
  %5 = load i64, ptr @rb_eRuntimeError, align 8, !tbaa !10
  tail call void (i64, ptr, ...) @rb_raise(i64 noundef %5, ptr noundef nonnull @.str.4) #9
  unreachable

6:                                                ; preds = %2
  %7 = tail call ptr @rb_check_typeddata(i64 noundef %1, ptr noundef nonnull @ossl_evp_pkey_type) #8
  %.not13 = icmp eq ptr %7, null
  br i1 %.not13, label %8, label %10

8:                                                ; preds = %6
  %9 = load i64, ptr @rb_eRuntimeError, align 8, !tbaa !10
  tail call void (i64, ptr, ...) @rb_raise(i64 noundef %9, ptr noundef nonnull @.str.4) #9
  unreachable

10:                                               ; preds = %6
  %11 = tail call i32 @EVP_PKEY_get_id(ptr noundef nonnull %3) #8
  %12 = tail call i32 @EVP_PKEY_get_id(ptr noundef nonnull %7) #8
  %.not14 = icmp eq i32 %11, %12
  br i1 %.not14, label %15, label %13

13:                                               ; preds = %10
  %14 = load i64, ptr @rb_eTypeError, align 8, !tbaa !10
  tail call void (i64, ptr, ...) @ossl_raise(i64 noundef %14, ptr noundef nonnull @.str.63) #9
  unreachable

15:                                               ; preds = %10
  %16 = tail call i32 @EVP_PKEY_eq(ptr noundef nonnull %3, ptr noundef nonnull %7) #8
  switch i32 %16, label %18 [
    i32 0, label %20
    i32 1, label %17
  ]

17:                                               ; preds = %15
  br label %20

18:                                               ; preds = %15
  %19 = load i64, ptr @ePKeyError, align 8, !tbaa !10
  tail call void (i64, ptr, ...) @ossl_raise(i64 noundef %19, ptr noundef nonnull @.str.64) #9
  unreachable

20:                                               ; preds = %15, %17
  %.0 = phi i64 [ 20, %17 ], [ 0, %15 ]
  ret i64 %.0
}